target datalayout = "e-m:e-p270:32:32-p271:32:32-p272:64:64-i64:64-i128:128-f80:128-n8:16:32:64-S128"
target triple = "x86_64-pc-linux-gnu"

%"class.cv::utils::trace::details::Region" = type <{ ptr, i32, [4 x i8] }>
%"class.cv::Size_" = type { i32, i32 }

; Function Attrs: mustprogress uwtable
define void @_ZN2cv12resizeWindowERKNSt7__cxx1112basic_stringIcSt11char_traitsIcESaIcEEERKNS_5Size_IiEE(ptr noundef nonnull align 8 dereferenceable(32) %0, ptr noundef nonnull align 4 dereferenceable(8) %1) #4 personality ptr @__gxx_personality_v0 {
  %3 = alloca ptr, align 8
  %4 = alloca ptr, align 8
  %5 = alloca %"class.cv::utils::trace::details::Region", align 8
  %6 = alloca ptr, align 8
  %7 = alloca i32, align 4
  store ptr %0, ptr %3, align 8
  store ptr %1, ptr %4, align 8
  call void @_ZN2cv5utils5trace7details6RegionC1ERKNS3_21LocationStaticStorageE(ptr noundef nonnull align 8 dereferenceable(12) %5, ptr noundef nonnull align 8 dereferenceable(32) @_ZZN2cv12resizeWindowERKNSt7__cxx1112basic_stringIcSt11char_traitsIcESaIcEEERKNS_5Size_IiEEE25__cv_trace_location_fn554)
  %8 = load ptr, ptr %3, align 8
  %9 = call noundef ptr @_ZNKSt7__cxx1112basic_stringIcSt11char_traitsIcESaIcEE5c_strEv(ptr noundef nonnull align 8 dereferenceable(32) %8) #3
  %10 = load ptr, ptr %4, align 8
  %11 = getelementptr inbounds %"class.cv::Size_", ptr %10, i32 0, i32 0
  %12 = load i32, ptr %11, align 4
  %13 = load ptr, ptr %4, align 8
  %14 = getelementptr inbounds %"class.cv::Size_", ptr %13, i32 0, i32 1
  %15 = load i32, ptr %14, align 4
  invoke void @cvResizeWindow(ptr noundef %9, i32 noundef %12, i32 noundef %15)
          to label %16 unwind label %17

16:                                               ; preds = %2
  call void @_ZN2cv5utils5trace7details6RegionD2Ev(ptr noundef nonnull align 8 dereferenceable(12) %5) #3
  ret void

17:                                               ; preds = %2
  %18 = landingpad { ptr, i32 }
          cleanup
  %19 = extractvalue { ptr, i32 } %18, 0
  store ptr %19, ptr %6, align 8
  %20 = extractvalue { ptr, i32 } %18, 1
  store i32 %20, ptr %7, align 4
  call void @_ZN2cv5utils5trace7details6RegionD2Ev(ptr noundef nonnull align 8 dereferenceable(12) %5) #3
  br label %21

21:                                               ; preds = %17
  %22 = load ptr, ptr %6, align 8
  %23 = load i32, ptr %7, align 4
  %24 = insertvalue { ptr, i32 } poison, ptr %22, 0
  %25 = insertvalue { ptr, i32 } %24, i32 %23, 1
  resume { ptr, i32 } %25
}