; Function Attrs: mustprogress uwtable
define void @_ZN2cv12resizeWindowERKNSt7__cxx1112basic_stringIcSt11char_traitsIcESaIcEEERKNS_5Size_IiEE(ptr noundef nonnull align 8 dereferenceable(32) %0, ptr nocapture noundef nonnull readonly align 4 dereferenceable(8) %1) local_unnamed_addr #3 personality ptr @__gxx_personality_v0 {
  %3 = alloca %"class.cv::utils::trace::details::Region", align 8
  call void @_ZN2cv5utils5trace7details6RegionC1ERKNS3_21LocationStaticStorageE(ptr noundef nonnull align 8 dereferenceable(12) %3, ptr noundef nonnull align 8 dereferenceable(32) @_ZZN2cv12resizeWindowERKNSt7__cxx1112basic_stringIcSt11char_traitsIcESaIcEEERKNS_5Size_IiEEE25__cv_trace_location_fn554)
  %4 = call noundef ptr @_ZNKSt7__cxx1112basic_stringIcSt11char_traitsIcESaIcEE5c_strEv(ptr noundef nonnull align 8 dereferenceable(32) %0) #20
  %5 = load i32, ptr %1, align 4
  %6 = getelementptr inbounds i8, ptr %1, i64 4
  %7 = load i32, ptr %6, align 4
  invoke void @cvResizeWindow(ptr noundef %4, i32 noundef %5, i32 noundef %7)
          to label %8 unwind label %15

8:                                                ; preds = %2
  %9 = getelementptr inbounds i8, ptr %3, i64 8
  %10 = load i32, ptr %9, align 8
  %.not.i = icmp eq i32 %10, 0
  br i1 %.not.i, label %_ZN2cv5utils5trace7details6RegionD2Ev.exit, label %11

11:                                               ; preds = %8
  invoke void @_ZN2cv5utils5trace7details6Region7destroyEv(ptr noundef nonnull align 8 dereferenceable(12) %3)
          to label %_ZN2cv5utils5trace7details6RegionD2Ev.exit unwind label %12

12:                                               ; preds = %11
  %13 = landingpad { ptr, i32 }
          catch ptr null
  %14 = extractvalue { ptr, i32 } %13, 0
  call void @__clang_call_terminate(ptr %14) #23
  unreachable

_ZN2cv5utils5trace7details6RegionD2Ev.exit:       ; preds = %8, %11
  ret void

15:                                               ; preds = %2
  %16 = landingpad { ptr, i32 }
          cleanup
  call void @_ZN2cv5utils5trace7details6RegionD2Ev(ptr noundef nonnull align 8 dereferenceable(12) %3) #20
  resume { ptr, i32 } %16
}